; Function Attrs: mustprogress uwtable
define hidden void @_ZN6google8protobuf8compiler6csharp18FieldGeneratorBase28GetBytesDefaultValueInternalB5cxx11EPKNS0_15FieldDescriptorE(ptr noalias sret(%"class.std::__cxx11::basic_string") align 8 %agg.result, ptr nocapture nonnull readnone align 8 %this, ptr nocapture noundef readonly %descriptor) local_unnamed_addr #3 align 2 personality ptr @__gxx_personality_v0 {
entry:
  %ref.tmp = alloca %"class.std::allocator.9", align 1
  %ref.tmp3 = alloca %"class.absl::lts_20230802::AlphaNum", align 8
  %ref.tmp4 = alloca %"class.absl::lts_20230802::AlphaNum", align 8
  %ref.tmp5 = alloca %"class.std::__cxx11::basic_string", align 8
  %ref.tmp10 = alloca %"class.absl::lts_20230802::AlphaNum", align 8
  %0 = getelementptr inbounds i8, ptr %descriptor, i64 80
  %1 = load ptr, ptr %0, align 8
  %call2 = tail call noundef zeroext i1 @_ZNKSt7__cxx1112basic_stringIcSt11char_traitsIcESaIcEE5emptyEv(ptr noundef nonnull align 8 dereferenceable(32) %1) #26
  br i1 %call2, label %if.then, label %invoke.cont11

if.then:                                          ; preds = %entry
  call void @_ZNSaIcEC1Ev(ptr noundef nonnull align 1 dereferenceable(1) %ref.tmp) #26
  %call.i3 = invoke noundef ptr @_ZNSt7__cxx1112basic_stringIcSt11char_traitsIcESaIcEE13_M_local_dataEv(ptr noundef nonnull align 8 dereferenceable(32) %agg.result)
          to label %call.i.noexc unwind label %lpad

call.i.noexc:                                     ; preds = %if.then
  invoke void @_ZNSt7__cxx1112basic_stringIcSt11char_traitsIcESaIcEE12_Alloc_hiderC1EPcRKS3_(ptr noundef nonnull align 8 dereferenceable(8) %agg.result, ptr noundef %call.i3, ptr noundef nonnull align 1 dereferenceable(1) %ref.tmp)
          to label %.noexc unwind label %lpad

.noexc:                                           ; preds = %call.i.noexc
  invoke void @_ZNSt7__cxx1112basic_stringIcSt11char_traitsIcESaIcEE12_M_constructIPKcEEvT_S8_St20forward_iterator_tag(ptr noundef nonnull align 8 dereferenceable(32) %agg.result, ptr noundef nonnull @.str.59, ptr noundef nonnull getelementptr inbounds ([21 x i8], ptr @.str.59, i64 0, i64 20))
          to label %invoke.cont unwind label %lpad.i

lpad.i:                                           ; preds = %.noexc
  %2 = landingpad { ptr, i32 }
          cleanup
  call void @_ZNSaIcED2Ev(ptr noundef nonnull align 1 dereferenceable(1) %agg.result) #26
  br label %lpad.body

invoke.cont:                                      ; preds = %.noexc
  call void @_ZNSaIcED1Ev(ptr noundef nonnull align 1 dereferenceable(1) %ref.tmp) #26
  br label %return

lpad:                                             ; preds = %call.i.noexc, %if.then
  %3 = landingpad { ptr, i32 }
          cleanup
  br label %lpad.body

lpad.body:                                        ; preds = %lpad.i, %lpad
  %eh.lpad-body = phi { ptr, i32 } [ %3, %lpad ], [ %2, %lpad.i ]
  call void @_ZNSaIcED1Ev(ptr noundef nonnull align 1 dereferenceable(1) %ref.tmp) #26
  br label %eh.resume

invoke.cont11:                                    ; preds = %entry
  store i64 27, ptr %ref.tmp3, align 8
  %4 = getelementptr inbounds i8, ptr %ref.tmp3, i64 8
  store ptr @.str.60, ptr %4, align 8
  %5 = load ptr, ptr %0, align 8
  %call7 = tail call { i64, ptr } @_ZNKSt7__cxx1112basic_stringIcSt11char_traitsIcESaIcEEcvSt17basic_string_viewIcS2_EEv(ptr noundef nonnull align 8 dereferenceable(32) %5) #26
  %6 = extractvalue { i64, ptr } %call7, 0
  %7 = extractvalue { i64, ptr } %call7, 1
  call void @_ZN6google8protobuf8compiler6csharp14StringToBase64B5cxx11ESt17basic_string_viewIcSt11char_traitsIcEE(ptr nonnull sret(%"class.std::__cxx11::basic_string") align 8 %ref.tmp5, i64 %6, ptr %7)
  %call.i = call { i64, ptr } @_ZNKSt7__cxx1112basic_stringIcSt11char_traitsIcESaIcEEcvSt17basic_string_viewIcS2_EEv(ptr noundef nonnull align 8 dereferenceable(32) %ref.tmp5) #26
  %8 = extractvalue { i64, ptr } %call.i, 0
  store i64 %8, ptr %ref.tmp4, align 8
  %9 = getelementptr inbounds i8, ptr %ref.tmp4, i64 8
  %10 = extractvalue { i64, ptr } %call.i, 1
  store ptr %10, ptr %9, align 8
  store i64 2, ptr %ref.tmp10, align 8
  %11 = getelementptr inbounds i8, ptr %ref.tmp10, i64 8
  store ptr @.str.61, ptr %11, align 8
  invoke void @_ZN4absl12lts_202308026StrCatB5cxx11ERKNS0_8AlphaNumES3_S3_(ptr sret(%"class.std::__cxx11::basic_string") align 8 %agg.result, ptr noundef nonnull align 8 dereferenceable(48) %ref.tmp3, ptr noundef nonnull align 8 dereferenceable(48) %ref.tmp4, ptr noundef nonnull align 8 dereferenceable(48) %ref.tmp10)
          to label %invoke.cont12 unwind label %lpad8

invoke.cont12:                                    ; preds = %invoke.cont11
  call void @_ZNSt7__cxx1112basic_stringIcSt11char_traitsIcESaIcEED1Ev(ptr noundef nonnull align 8 dereferenceable(32) %ref.tmp5) #26
  br label %return

lpad8:                                            ; preds = %invoke.cont11
  %12 = landingpad { ptr, i32 }
          cleanup
  call void @_ZNSt7__cxx1112basic_stringIcSt11char_traitsIcESaIcEED1Ev(ptr noundef nonnull align 8 dereferenceable(32) %ref.tmp5) #26
  br label %eh.resume

return:                                           ; preds = %invoke.cont12, %invoke.cont
  ret void

eh.resume:                                        ; preds = %lpad8, %lpad.body
  %.pn = phi { ptr, i32 } [ %eh.lpad-body, %lpad.body ], [ %12, %lpad8 ]
  resume { ptr, i32 } %.pn
}